target datalayout = "e-m:e-p270:32:32-p271:32:32-p272:64:64-i64:64-i128:128-f80:128-n8:16:32:64-S128"
target triple = "x86_64-pc-linux-gnu"

%struct.evbuffer_chain = type { ptr, i64, i64, i64, i32, i32, ptr }
%struct.evbuffer = type { ptr, ptr, ptr, i64, i64, i64, i64, ptr, i8, i32, ptr, i32, %struct.event_callback, %struct.evbuffer_cb_queue, ptr }
%struct.event_callback = type { %struct.anon, i16, i8, i8, %union.anon, ptr }
%struct.anon = type { ptr, ptr }
%union.anon = type { ptr }
%struct.evbuffer_cb_queue = type { ptr }

@evthread_lock_debugging_enabled_ = external global i32, align 4

; Function Attrs: nounwind uwtable
define internal ptr @evbuffer_chain_new(i64 noundef %0) #0 {
  %2 = alloca ptr, align 8
  %3 = alloca i64, align 8
  %4 = alloca ptr, align 8
  %5 = alloca i64, align 8
  %6 = alloca i32, align 4
  store i64 %0, ptr %3, align 8
  call void @llvm.lifetime.start.p0(i64 8, ptr %4) #10
  call void @llvm.lifetime.start.p0(i64 8, ptr %5) #10
  %7 = load i64, ptr %3, align 8
  %8 = icmp ugt i64 %7, 9223372036854775759
  br i1 %8, label %9, label %10

9:                                                ; preds = %1
  store ptr null, ptr %2, align 8
  store i32 1, ptr %6, align 4
  br label %30

10:                                               ; preds = %1
  %11 = load i64, ptr %3, align 8
  %12 = add i64 %11, 48
  store i64 %12, ptr %5, align 8
  %13 = load i64, ptr %5, align 8
  %14 = call ptr @event_mm_malloc_(i64 noundef %13)
  store ptr %14, ptr %4, align 8
  %15 = icmp eq ptr %14, null
  br i1 %15, label %16, label %17

16:                                               ; preds = %10
  store ptr null, ptr %2, align 8
  store i32 1, ptr %6, align 4
  br label %30

17:                                               ; preds = %10
  %18 = load ptr, ptr %4, align 8
  call void @llvm.memset.p0.i64(ptr align 8 %18, i8 0, i64 48, i1 false)
  %19 = load i64, ptr %5, align 8
  %20 = sub i64 %19, 48
  %21 = load ptr, ptr %4, align 8
  %22 = getelementptr inbounds nuw %struct.evbuffer_chain, ptr %21, i32 0, i32 1
  store i64 %20, ptr %22, align 8
  %23 = load ptr, ptr %4, align 8
  %24 = getelementptr inbounds %struct.evbuffer_chain, ptr %23, i64 1
  %25 = load ptr, ptr %4, align 8
  %26 = getelementptr inbounds nuw %struct.evbuffer_chain, ptr %25, i32 0, i32 6
  store ptr %24, ptr %26, align 8
  %27 = load ptr, ptr %4, align 8
  %28 = getelementptr inbounds nuw %struct.evbuffer_chain, ptr %27, i32 0, i32 5
  store i32 1, ptr %28, align 4
  %29 = load ptr, ptr %4, align 8
  store ptr %29, ptr %2, align 8
  store i32 1, ptr %6, align 4
  br label %30

30:                                               ; preds = %17, %16, %9
  call void @llvm.lifetime.end.p0(i64 8, ptr %5) #10
  call void @llvm.lifetime.end.p0(i64 8, ptr %4) #10
  %31 = load ptr, ptr %2, align 8
  ret ptr %31
}

; Function Attrs: nounwind uwtable
define internal ptr @evbuffer_chain_new_membuf(i64 noundef %0) #0 {
  %2 = alloca ptr, align 8
  %3 = alloca i64, align 8
  %4 = alloca i64, align 8
  %5 = alloca i32, align 4
  store i64 %0, ptr %3, align 8
  call void @llvm.lifetime.start.p0(i64 8, ptr %4) #10
  %6 = load i64, ptr %3, align 8
  %7 = icmp ugt i64 %6, 9223372036854775759
  br i1 %7, label %8, label %9

8:                                                ; preds = %1
  store ptr null, ptr %2, align 8
  store i32 1, ptr %5, align 4
  br label %29

9:                                                ; preds = %1
  %10 = load i64, ptr %3, align 8
  %11 = add i64 %10, 48
  store i64 %11, ptr %3, align 8
  %12 = load i64, ptr %3, align 8
  %13 = icmp ult i64 %12, 4611686018427387903
  br i1 %13, label %14, label %23

14:                                               ; preds = %9
  store i64 1024, ptr %4, align 8
  br label %15

15:                                               ; preds = %19, %14
  %16 = load i64, ptr %4, align 8
  %17 = load i64, ptr %3, align 8
  %18 = icmp ult i64 %16, %17
  br i1 %18, label %19, label %22

19:                                               ; preds = %15
  %20 = load i64, ptr %4, align 8
  %21 = shl i64 %20, 1
  store i64 %21, ptr %4, align 8
  br label %15, !llvm.loop !25

22:                                               ; preds = %15
  br label %25

23:                                               ; preds = %9
  %24 = load i64, ptr %3, align 8
  store i64 %24, ptr %4, align 8
  br label %25

25:                                               ; preds = %23, %22
  %26 = load i64, ptr %4, align 8
  %27 = sub i64 %26, 48
  %28 = call ptr @evbuffer_chain_new(i64 noundef %27)
  store ptr %28, ptr %2, align 8
  store i32 1, ptr %5, align 4
  br label %29

29:                                               ; preds = %25, %8
  call void @llvm.lifetime.end.p0(i64 8, ptr %4) #10
  %30 = load ptr, ptr %2, align 8
  ret ptr %30
}

; Function Attrs: inlinehint nounwind uwtable
define internal i32 @HAS_PINNED_R(ptr noundef %0) #1 {
  %2 = alloca ptr, align 8
  store ptr %0, ptr %2, align 8
  %3 = load ptr, ptr %2, align 8
  %4 = getelementptr inbounds nuw %struct.evbuffer, ptr %3, i32 0, i32 1
  %5 = load ptr, ptr %4, align 8
  %6 = icmp ne ptr %5, null
  br i1 %6, label %7, label %15

7:                                                ; preds = %1
  %8 = load ptr, ptr %2, align 8
  %9 = getelementptr inbounds nuw %struct.evbuffer, ptr %8, i32 0, i32 1
  %10 = load ptr, ptr %9, align 8
  %11 = getelementptr inbounds nuw %struct.evbuffer_chain, ptr %10, i32 0, i32 4
  %12 = load i32, ptr %11, align 8
  %13 = and i32 %12, 16
  %14 = icmp ne i32 %13, 0
  br label %15

15:                                               ; preds = %7, %1
  %16 = phi i1 [ false, %1 ], [ %14, %7 ]
  %17 = zext i1 %16 to i32
  ret i32 %17
}

; Function Attrs: nounwind uwtable
define internal i32 @PRESERVE_PINNED(ptr noundef %0, ptr noundef %1, ptr noundef %2) #0 {
  %4 = alloca i32, align 4
  %5 = alloca ptr, align 8
  %6 = alloca ptr, align 8
  %7 = alloca ptr, align 8
  %8 = alloca ptr, align 8
  %9 = alloca ptr, align 8
  %10 = alloca i32, align 4
  %11 = alloca ptr, align 8
  store ptr %0, ptr %5, align 8
  store ptr %1, ptr %6, align 8
  store ptr %2, ptr %7, align 8
  call void @llvm.lifetime.start.p0(i64 8, ptr %8) #10
  call void @llvm.lifetime.start.p0(i64 8, ptr %9) #10
  br label %12

12:                                               ; preds = %3
  %13 = load ptr, ptr %5, align 8
  %14 = getelementptr inbounds nuw %struct.evbuffer, ptr %13, i32 0, i32 7
  %15 = load ptr, ptr %14, align 8
  %16 = icmp ne ptr %15, null
  br i1 %16, label %17, label %24

17:                                               ; preds = %12
  %18 = load i32, ptr @evthread_lock_debugging_enabled_, align 4
  %19 = icmp ne i32 %18, 0
  br i1 %19, label %20, label %24

20:                                               ; preds = %17
  br label %21

21:                                               ; preds = %20
  br label %22

22:                                               ; preds = %21
  br label %23

23:                                               ; preds = %22
  br label %24

24:                                               ; preds = %23, %17, %12
  br label %25

25:                                               ; preds = %24
  br label %26

26:                                               ; preds = %25
  %27 = load ptr, ptr %5, align 8
  %28 = call i32 @HAS_PINNED_R(ptr noundef %27)
  %29 = icmp ne i32 %28, 0
  br i1 %29, label %33, label %30

30:                                               ; preds = %26
  %31 = load ptr, ptr %7, align 8
  store ptr null, ptr %31, align 8
  %32 = load ptr, ptr %6, align 8
  store ptr null, ptr %32, align 8
  store i32 0, ptr %4, align 4
  store i32 1, ptr %10, align 4
  br label %120

33:                                               ; preds = %26
  %34 = load ptr, ptr %5, align 8
  %35 = getelementptr inbounds nuw %struct.evbuffer, ptr %34, i32 0, i32 2
  %36 = load ptr, ptr %35, align 8
  store ptr %36, ptr %9, align 8
  %37 = load ptr, ptr %9, align 8
  %38 = load ptr, ptr %37, align 8
  %39 = getelementptr inbounds nuw %struct.evbuffer_chain, ptr %38, i32 0, i32 4
  %40 = load i32, ptr %39, align 8
  %41 = and i32 %40, 16
  %42 = icmp ne i32 %41, 0
  br i1 %42, label %47, label %43

43:                                               ; preds = %33
  %44 = load ptr, ptr %9, align 8
  %45 = load ptr, ptr %44, align 8
  %46 = getelementptr inbounds nuw %struct.evbuffer_chain, ptr %45, i32 0, i32 0
  store ptr %46, ptr %9, align 8
  br label %47

47:                                               ; preds = %43, %33
  br label %48

48:                                               ; preds = %47
  br label %49

49:                                               ; preds = %48
  br label %50

50:                                               ; preds = %49
  %51 = load ptr, ptr %9, align 8
  %52 = load ptr, ptr %51, align 8
  %53 = load ptr, ptr %6, align 8
  store ptr %52, ptr %53, align 8
  store ptr %52, ptr %8, align 8
  %54 = load ptr, ptr %5, align 8
  %55 = getelementptr inbounds nuw %struct.evbuffer, ptr %54, i32 0, i32 1
  %56 = load ptr, ptr %55, align 8
  %57 = load ptr, ptr %7, align 8
  store ptr %56, ptr %57, align 8
  %58 = load ptr, ptr %8, align 8
  %59 = getelementptr inbounds nuw %struct.evbuffer_chain, ptr %58, i32 0, i32 3
  %60 = load i64, ptr %59, align 8
  %61 = icmp ne i64 %60, 0
  br i1 %61, label %62, label %111

62:                                               ; preds = %50
  call void @llvm.lifetime.start.p0(i64 8, ptr %11) #10
  br label %63

63:                                               ; preds = %62
  br label %64

64:                                               ; preds = %63
  br label %65

65:                                               ; preds = %64
  %66 = load ptr, ptr %8, align 8
  %67 = getelementptr inbounds nuw %struct.evbuffer_chain, ptr %66, i32 0, i32 3
  %68 = load i64, ptr %67, align 8
  %69 = call ptr @evbuffer_chain_new_membuf(i64 noundef %68)
  store ptr %69, ptr %11, align 8
  %70 = load ptr, ptr %11, align 8
  %71 = icmp ne ptr %70, null
  br i1 %71, label %73, label %72

72:                                               ; preds = %65
  store i32 -1, ptr %4, align 4
  store i32 1, ptr %10, align 4
  br label %108

73:                                               ; preds = %65
  %74 = load ptr, ptr %11, align 8
  %75 = getelementptr inbounds nuw %struct.evbuffer_chain, ptr %74, i32 0, i32 6
  %76 = load ptr, ptr %75, align 8
  %77 = load ptr, ptr %8, align 8
  %78 = getelementptr inbounds nuw %struct.evbuffer_chain, ptr %77, i32 0, i32 6
  %79 = load ptr, ptr %78, align 8
  %80 = load ptr, ptr %8, align 8
  %81 = getelementptr inbounds nuw %struct.evbuffer_chain, ptr %80, i32 0, i32 2
  %82 = load i64, ptr %81, align 8
  %83 = getelementptr inbounds i8, ptr %79, i64 %82
  %84 = load ptr, ptr %8, align 8
  %85 = getelementptr inbounds nuw %struct.evbuffer_chain, ptr %84, i32 0, i32 3
  %86 = load i64, ptr %85, align 8
  call void @llvm.memcpy.p0.p0.i64(ptr align 1 %76, ptr align 1 %83, i64 %86, i1 false)
  %87 = load ptr, ptr %8, align 8
  %88 = getelementptr inbounds nuw %struct.evbuffer_chain, ptr %87, i32 0, i32 3
  %89 = load i64, ptr %88, align 8
  %90 = load ptr, ptr %11, align 8
  %91 = getelementptr inbounds nuw %struct.evbuffer_chain, ptr %90, i32 0, i32 3
  store i64 %89, ptr %91, align 8
  %92 = load ptr, ptr %11, align 8
  %93 = load ptr, ptr %5, align 8
  %94 = getelementptr inbounds nuw %struct.evbuffer, ptr %93, i32 0, i32 2
  %95 = load ptr, ptr %94, align 8
  store ptr %92, ptr %95, align 8
  %96 = load ptr, ptr %11, align 8
  %97 = load ptr, ptr %5, align 8
  %98 = getelementptr inbounds nuw %struct.evbuffer, ptr %97, i32 0, i32 1
  store ptr %96, ptr %98, align 8
  %99 = load ptr, ptr %8, align 8
  %100 = getelementptr inbounds nuw %struct.evbuffer_chain, ptr %99, i32 0, i32 3
  %101 = load i64, ptr %100, align 8
  %102 = load ptr, ptr %8, align 8
  %103 = getelementptr inbounds nuw %struct.evbuffer_chain, ptr %102, i32 0, i32 2
  %104 = load i64, ptr %103, align 8
  %105 = add i64 %104, %101
  store i64 %105, ptr %103, align 8
  %106 = load ptr, ptr %8, align 8
  %107 = getelementptr inbounds nuw %struct.evbuffer_chain, ptr %106, i32 0, i32 3
  store i64 0, ptr %107, align 8
  store i32 0, ptr %10, align 4
  br label %108

108:                                              ; preds = %73, %72
  call void @llvm.lifetime.end.p0(i64 8, ptr %11) #10
  %109 = load i32, ptr %10, align 4
  switch i32 %109, label %120 [
    i32 0, label %110
  ]

110:                                              ; preds = %108
  br label %119

111:                                              ; preds = %50
  %112 = load ptr, ptr %5, align 8
  %113 = getelementptr inbounds nuw %struct.evbuffer, ptr %112, i32 0, i32 2
  %114 = load ptr, ptr %113, align 8
  %115 = load ptr, ptr %114, align 8
  %116 = load ptr, ptr %5, align 8
  %117 = getelementptr inbounds nuw %struct.evbuffer, ptr %116, i32 0, i32 1
  store ptr %115, ptr %117, align 8
  %118 = load ptr, ptr %9, align 8
  store ptr null, ptr %118, align 8
  br label %119

119:                                              ; preds = %111, %110
  store i32 0, ptr %4, align 4
  store i32 1, ptr %10, align 4
  br label %120

120:                                              ; preds = %119, %108, %30
  call void @llvm.lifetime.end.p0(i64 8, ptr %9) #10
  call void @llvm.lifetime.end.p0(i64 8, ptr %8) #10
  %121 = load i32, ptr %4, align 4
  ret i32 %121
}