; Function Attrs: nounwind uwtable
define internal fastcc range(i32 -1, 1) i32 @PRESERVE_PINNED(ptr noundef captures(none) %0, ptr noundef nonnull writeonly captures(none) initializes((0, 8)) %1, ptr noundef nonnull writeonly captures(none) initializes((0, 8)) %2) unnamed_addr #1 {
  %4 = getelementptr i8, ptr %0, i64 8
  %.val = load ptr, ptr %4, align 8
  %.not.i = icmp eq ptr %.val, null
  br i1 %.not.i, label %HAS_PINNED_R.exit.thread, label %HAS_PINNED_R.exit

HAS_PINNED_R.exit:                                ; preds = %3
  %5 = getelementptr inbounds nuw i8, ptr %.val, i64 32
  %6 = load i32, ptr %5, align 8
  %7 = and i32 %6, 16
  %.not = icmp eq i32 %7, 0
  br i1 %.not, label %HAS_PINNED_R.exit.thread, label %8

HAS_PINNED_R.exit.thread:                         ; preds = %3, %HAS_PINNED_R.exit
  store ptr null, ptr %2, align 8
  store ptr null, ptr %1, align 8
  br label %.critedge

8:                                                ; preds = %HAS_PINNED_R.exit
  %9 = getelementptr inbounds nuw i8, ptr %0, i64 16
  %10 = load ptr, ptr %9, align 8
  %11 = load ptr, ptr %10, align 8
  %12 = getelementptr inbounds nuw i8, ptr %11, i64 32
  %13 = load i32, ptr %12, align 8
  %14 = and i32 %13, 16
  %.not36 = icmp eq i32 %14, 0
  %spec.select = select i1 %.not36, ptr %11, ptr %10
  %15 = load ptr, ptr %spec.select, align 8
  store ptr %15, ptr %1, align 8
  %16 = load ptr, ptr %4, align 8
  store ptr %16, ptr %2, align 8
  %17 = getelementptr inbounds nuw i8, ptr %15, i64 24
  %18 = load i64, ptr %17, align 8
  %.not37 = icmp eq i64 %18, 0
  br i1 %.not37, label %48, label %19

19:                                               ; preds = %8
  %20 = icmp ugt i64 %18, 9223372036854775759
  br i1 %20, label %.critedge, label %21

21:                                               ; preds = %19
  %22 = add nuw nsw i64 %18, 48
  %23 = icmp samesign ult i64 %18, 4611686018427387855
  br i1 %23, label %.preheader.i, label %.loopexit.thread.i

.preheader.i:                                     ; preds = %21, %.preheader.i
  %.0.i = phi i64 [ %25, %.preheader.i ], [ 1024, %21 ]
  %24 = icmp ult i64 %.0.i, %22
  %25 = shl nuw nsw i64 %.0.i, 1
  br i1 %24, label %.preheader.i, label %.loopexit.i, !llvm.loop !9

.loopexit.i:                                      ; preds = %.preheader.i
  %26 = add nsw i64 %.0.i, -48
  %27 = icmp slt i64 %.0.i, 48
  br i1 %27, label %.critedge, label %.loopexit.thread.i

.loopexit.thread.i:                               ; preds = %.loopexit.i, %21
  %28 = phi i64 [ %26, %.loopexit.i ], [ %18, %21 ]
  %.113.i = phi i64 [ %.0.i, %.loopexit.i ], [ %22, %21 ]
  %29 = tail call ptr @event_mm_malloc_(i64 noundef %.113.i) #16
  %30 = icmp eq ptr %29, null
  br i1 %30, label %.critedge, label %31

31:                                               ; preds = %.loopexit.thread.i
  tail call void @llvm.memset.p0.i64(ptr noundef nonnull align 8 dereferenceable(48) %29, i8 0, i64 40, i1 false)
  %32 = getelementptr inbounds nuw i8, ptr %29, i64 8
  store i64 %28, ptr %32, align 8
  %33 = getelementptr inbounds nuw i8, ptr %29, i64 48
  %34 = getelementptr inbounds nuw i8, ptr %29, i64 40
  store ptr %33, ptr %34, align 8
  %35 = getelementptr inbounds nuw i8, ptr %29, i64 36
  store i32 1, ptr %35, align 4
  %36 = getelementptr inbounds nuw i8, ptr %15, i64 40
  %37 = load ptr, ptr %36, align 8
  %38 = getelementptr inbounds nuw i8, ptr %15, i64 16
  %39 = load i64, ptr %38, align 8
  %40 = getelementptr inbounds i8, ptr %37, i64 %39
  %41 = load i64, ptr %17, align 8
  tail call void @llvm.memcpy.p0.p0.i64(ptr nonnull align 1 %33, ptr align 1 %40, i64 %41, i1 false)
  %42 = load i64, ptr %17, align 8
  %43 = getelementptr inbounds nuw i8, ptr %29, i64 24
  store i64 %42, ptr %43, align 8
  %44 = load ptr, ptr %9, align 8
  store ptr %29, ptr %44, align 8
  store ptr %29, ptr %4, align 8
  %45 = load i64, ptr %17, align 8
  %46 = load i64, ptr %38, align 8
  %47 = add i64 %46, %45
  store i64 %47, ptr %38, align 8
  store i64 0, ptr %17, align 8
  br label %.critedge

48:                                               ; preds = %8
  %49 = load ptr, ptr %9, align 8
  %50 = load ptr, ptr %49, align 8
  store ptr %50, ptr %4, align 8
  store ptr null, ptr %spec.select, align 8
  br label %.critedge

.critedge:                                        ; preds = %.loopexit.thread.i, %.loopexit.i, %19, %48, %31, %HAS_PINNED_R.exit.thread
  %.0 = phi i32 [ 0, %HAS_PINNED_R.exit.thread ], [ 0, %31 ], [ 0, %48 ], [ -1, %19 ], [ -1, %.loopexit.i ], [ -1, %.loopexit.thread.i ]
  ret i32 %.0
}